target datalayout = "e-m:e-p270:32:32-p271:32:32-p272:64:64-i64:64-i128:128-f80:128-n8:16:32:64-S128"
target triple = "x86_64-pc-linux-gnu"

%"struct.faiss::IndexHNSW" = type <{ %"struct.faiss::Index.base", [4 x i8], %"struct.faiss::HNSW", i8, [7 x i8], ptr, i8, i8, [6 x i8] }>
%"struct.faiss::Index.base" = type <{ ptr, i32, [4 x i8], i64, i8, i8, [2 x i8], i32, float }>
%"struct.faiss::HNSW" = type <{ %"class.std::vector", %"class.std::vector.0", %"class.std::vector.0", %"class.std::vector.5", %"class.std::vector.0", i32, [4 x i8], %"struct.faiss::RandomGenerator", i32, i32, i32, i8, i8, [2 x i8] }>
%"class.std::vector" = type { %"struct.std::_Vector_base" }
%"struct.std::_Vector_base" = type { %"struct.std::_Vector_base<double, std::allocator<double>>::_Vector_impl" }
%"struct.std::_Vector_base<double, std::allocator<double>>::_Vector_impl" = type { %"struct.std::_Vector_base<double, std::allocator<double>>::_Vector_impl_data" }
%"struct.std::_Vector_base<double, std::allocator<double>>::_Vector_impl_data" = type { ptr, ptr, ptr }
%"class.std::vector.5" = type { %"struct.std::_Vector_base.6" }
%"struct.std::_Vector_base.6" = type { %"struct.std::_Vector_base<unsigned long, std::allocator<unsigned long>>::_Vector_impl" }
%"struct.std::_Vector_base<unsigned long, std::allocator<unsigned long>>::_Vector_impl" = type { %"struct.std::_Vector_base<unsigned long, std::allocator<unsigned long>>::_Vector_impl_data" }
%"struct.std::_Vector_base<unsigned long, std::allocator<unsigned long>>::_Vector_impl_data" = type { ptr, ptr, ptr }
%"class.std::vector.0" = type { %"struct.std::_Vector_base.1" }
%"struct.std::_Vector_base.1" = type { %"struct.std::_Vector_base<int, std::allocator<int>>::_Vector_impl" }
%"struct.std::_Vector_base<int, std::allocator<int>>::_Vector_impl" = type { %"struct.std::_Vector_base<int, std::allocator<int>>::_Vector_impl_data" }
%"struct.std::_Vector_base<int, std::allocator<int>>::_Vector_impl_data" = type { ptr, ptr, ptr }
%"struct.faiss::RandomGenerator" = type { %"class.std::mersenne_twister_engine" }
%"class.std::mersenne_twister_engine" = type { [624 x i64], i64 }
%"struct.faiss::Index" = type <{ ptr, i32, [4 x i8], i64, i8, i8, [2 x i8], i32, float, [4 x i8] }>

; Function Attrs: mustprogress nounwind uwtable
define linkonce_odr void @_ZN5faiss5IndexC2ElNS_10MetricTypeE(ptr noundef nonnull align 8 dereferenceable(36) %0, i64 noundef %1, i32 noundef %2) unnamed_addr #0 comdat align 2 {
  %4 = alloca ptr, align 8
  %5 = alloca i64, align 8
  %6 = alloca i32, align 4
  store ptr %0, ptr %4, align 8, !tbaa !88
  store i64 %1, ptr %5, align 8, !tbaa !9
  store i32 %2, ptr %6, align 4, !tbaa !85
  %7 = load ptr, ptr %4, align 8
  store ptr getelementptr inbounds inrange(-16, 184) ({ [25 x ptr] }, ptr @_ZTVN5faiss5IndexE, i32 0, i32 0, i32 2), ptr %7, align 8, !tbaa !40
  %8 = getelementptr inbounds nuw %"struct.faiss::Index", ptr %7, i32 0, i32 1
  %9 = load i64, ptr %5, align 8, !tbaa !9
  %10 = trunc i64 %9 to i32
  store i32 %10, ptr %8, align 8, !tbaa !82
  %11 = getelementptr inbounds nuw %"struct.faiss::Index", ptr %7, i32 0, i32 3
  store i64 0, ptr %11, align 8, !tbaa !45
  %12 = getelementptr inbounds nuw %"struct.faiss::Index", ptr %7, i32 0, i32 4
  store i8 0, ptr %12, align 8, !tbaa !46
  %13 = getelementptr inbounds nuw %"struct.faiss::Index", ptr %7, i32 0, i32 5
  store i8 1, ptr %13, align 1, !tbaa !42
  %14 = getelementptr inbounds nuw %"struct.faiss::Index", ptr %7, i32 0, i32 7
  %15 = load i32, ptr %6, align 4, !tbaa !85
  store i32 %15, ptr %14, align 4, !tbaa !50
  %16 = getelementptr inbounds nuw %"struct.faiss::Index", ptr %7, i32 0, i32 8
  store float 0.000000e+00, ptr %16, align 8, !tbaa !89
  ret void
}

; Function Attrs: mustprogress uwtable
define void @_ZN5faiss9IndexHNSWC2EPNS_5IndexEi(ptr noundef nonnull align 8 dereferenceable(5202) %0, ptr noundef %1, i32 noundef %2) unnamed_addr #1 align 2 personality ptr @__gxx_personality_v0 {
  %4 = alloca ptr, align 8
  %5 = alloca ptr, align 8
  %6 = alloca i32, align 4
  %7 = alloca ptr, align 8
  %8 = alloca i32, align 4
  store ptr %0, ptr %4, align 8, !tbaa !4
  store ptr %1, ptr %5, align 8, !tbaa !88
  store i32 %2, ptr %6, align 4, !tbaa !39
  %9 = load ptr, ptr %4, align 8
  %10 = load ptr, ptr %5, align 8, !tbaa !88
  %11 = getelementptr inbounds nuw %"struct.faiss::Index", ptr %10, i32 0, i32 1
  %12 = load i32, ptr %11, align 8, !tbaa !82
  %13 = sext i32 %12 to i64
  %14 = load ptr, ptr %5, align 8, !tbaa !88
  %15 = getelementptr inbounds nuw %"struct.faiss::Index", ptr %14, i32 0, i32 7
  %16 = load i32, ptr %15, align 4, !tbaa !50
  call void @_ZN5faiss5IndexC2ElNS_10MetricTypeE(ptr noundef nonnull align 8 dereferenceable(36) %9, i64 noundef %13, i32 noundef %16)
  store ptr getelementptr inbounds inrange(-16, 184) ({ [25 x ptr] }, ptr @_ZTVN5faiss9IndexHNSWE, i32 0, i32 0, i32 2), ptr %9, align 8, !tbaa !40
  %17 = getelementptr inbounds nuw %"struct.faiss::IndexHNSW", ptr %9, i32 0, i32 2
  %18 = load i32, ptr %6, align 4, !tbaa !39
  invoke void @_ZN5faiss4HNSWC1Ei(ptr noundef nonnull align 8 dereferenceable(5142) %17, i32 noundef %18)
          to label %19 unwind label %25

19:                                               ; preds = %3
  %20 = getelementptr inbounds nuw %"struct.faiss::IndexHNSW", ptr %9, i32 0, i32 3
  store i8 0, ptr %20, align 8, !tbaa !77
  %21 = getelementptr inbounds nuw %"struct.faiss::IndexHNSW", ptr %9, i32 0, i32 5
  %22 = load ptr, ptr %5, align 8, !tbaa !88
  store ptr %22, ptr %21, align 8, !tbaa !13
  %23 = getelementptr inbounds nuw %"struct.faiss::IndexHNSW", ptr %9, i32 0, i32 6
  store i8 1, ptr %23, align 8, !tbaa !86
  %24 = getelementptr inbounds nuw %"struct.faiss::IndexHNSW", ptr %9, i32 0, i32 7
  store i8 0, ptr %24, align 1, !tbaa !87
  ret void

25:                                               ; preds = %3
  %26 = landingpad { ptr, i32 }
          cleanup
  %27 = extractvalue { ptr, i32 } %26, 0
  store ptr %27, ptr %7, align 8
  %28 = extractvalue { ptr, i32 } %26, 1
  store i32 %28, ptr %8, align 4
  call void @_ZN5faiss5IndexD2Ev(ptr noundef nonnull align 8 dereferenceable(36) %9) #6
  br label %29

29:                                               ; preds = %25
  %30 = load ptr, ptr %7, align 8
  %31 = load i32, ptr %8, align 4
  %32 = insertvalue { ptr, i32 } poison, ptr %30, 0
  %33 = insertvalue { ptr, i32 } %32, i32 %31, 1
  resume { ptr, i32 } %33
}

; Function Attrs: mustprogress uwtable
define void @_ZN5faiss15IndexHNSW2LevelC2EPNS_5IndexEmii(ptr noundef nonnull align 8 dereferenceable(5202) %0, ptr noundef %1, i64 noundef %2, i32 noundef %3, i32 noundef %4) unnamed_addr #1 align 2 personality ptr @__gxx_personality_v0 {
  %6 = alloca ptr, align 8
  %7 = alloca ptr, align 8
  %8 = alloca i64, align 8
  %9 = alloca i32, align 4
  %10 = alloca i32, align 4
  %11 = alloca ptr, align 8
  %12 = alloca i32, align 4
  store ptr %0, ptr %6, align 8, !tbaa !63
  store ptr %1, ptr %7, align 8, !tbaa !88
  store i64 %2, ptr %8, align 8, !tbaa !9
  store i32 %3, ptr %9, align 4, !tbaa !39
  store i32 %4, ptr %10, align 4, !tbaa !39
  %13 = load ptr, ptr %6, align 8
  %14 = call noalias noundef nonnull ptr @_Znwm(i64 noundef 384) #28
  %15 = load ptr, ptr %7, align 8, !tbaa !88
  %16 = load i64, ptr %8, align 8, !tbaa !9
  %17 = load i32, ptr %9, align 4, !tbaa !39
  invoke void @_ZN5faiss11Index2LayerC1EPNS_5IndexEmiiNS_10MetricTypeE(ptr noundef nonnull align 8 dereferenceable(384) %14, ptr noundef %15, i64 noundef %16, i32 noundef %17, i32 noundef 8, i32 noundef 1)
          to label %18 unwind label %22

18:                                               ; preds = %5
  %19 = load i32, ptr %10, align 4, !tbaa !39
  call void @_ZN5faiss9IndexHNSWC2EPNS_5IndexEi(ptr noundef nonnull align 8 dereferenceable(5202) %13, ptr noundef %14, i32 noundef %19)
  store ptr getelementptr inbounds inrange(-16, 184) ({ [25 x ptr] }, ptr @_ZTVN5faiss15IndexHNSW2LevelE, i32 0, i32 0, i32 2), ptr %13, align 8, !tbaa !40
  %20 = getelementptr inbounds nuw %"struct.faiss::IndexHNSW", ptr %13, i32 0, i32 3
  store i8 1, ptr %20, align 8, !tbaa !77
  %21 = getelementptr inbounds nuw %"struct.faiss::Index", ptr %13, i32 0, i32 5
  store i8 0, ptr %21, align 1, !tbaa !42
  ret void

22:                                               ; preds = %5
  %23 = landingpad { ptr, i32 }
          cleanup
  %24 = extractvalue { ptr, i32 } %23, 0
  store ptr %24, ptr %11, align 8
  %25 = extractvalue { ptr, i32 } %23, 1
  store i32 %25, ptr %12, align 4
  call void @_ZdlPvm(ptr noundef %14, i64 noundef 384) #26
  br label %26

26:                                               ; preds = %22
  %27 = load ptr, ptr %11, align 8
  %28 = load i32, ptr %12, align 4
  %29 = insertvalue { ptr, i32 } poison, ptr %27, 0
  %30 = insertvalue { ptr, i32 } %29, i32 %28, 1
  resume { ptr, i32 } %30
}