; Function Attrs: mustprogress uwtable
define void @_ZN5faiss15IndexHNSW2LevelC2EPNS_5IndexEmii(ptr noundef nonnull align 8 dereferenceable(5202) %0, ptr noundef %1, i64 noundef %2, i32 noundef %3, i32 noundef %4) unnamed_addr #1 align 2 personality ptr @__gxx_personality_v0 {
  %6 = tail call noalias noundef nonnull dereferenceable(384) ptr @_Znwm(i64 noundef 384) #31
  invoke void @_ZN5faiss11Index2LayerC1EPNS_5IndexEmiiNS_10MetricTypeE(ptr noundef nonnull align 8 dereferenceable(384) %6, ptr noundef %1, i64 noundef %2, i32 noundef %3, i32 noundef 8, i32 noundef 1)
          to label %7 unwind label %25

7:                                                ; preds = %5
  %8 = getelementptr inbounds nuw i8, ptr %6, i64 8
  %9 = load i32, ptr %8, align 8, !tbaa !54
  %10 = getelementptr inbounds nuw i8, ptr %6, i64 28
  %11 = load i32, ptr %10, align 4, !tbaa !98
  %12 = getelementptr inbounds nuw i8, ptr %0, i64 8
  store i32 %9, ptr %12, align 8, !tbaa !54
  %13 = getelementptr inbounds nuw i8, ptr %0, i64 16
  store i64 0, ptr %13, align 8, !tbaa !46
  %14 = getelementptr inbounds nuw i8, ptr %0, i64 24
  store i8 0, ptr %14, align 8, !tbaa !47
  %15 = getelementptr inbounds nuw i8, ptr %0, i64 25
  store i8 1, ptr %15, align 1, !tbaa !43
  %16 = getelementptr inbounds nuw i8, ptr %0, i64 28
  store i32 %11, ptr %16, align 4, !tbaa !98
  %17 = getelementptr inbounds nuw i8, ptr %0, i64 32
  store float 0.000000e+00, ptr %17, align 8, !tbaa !142
  store ptr getelementptr inbounds nuw inrange(-16, 184) (i8, ptr @_ZTVN5faiss9IndexHNSWE, i64 16), ptr %0, align 8, !tbaa !41
  %18 = getelementptr inbounds nuw i8, ptr %0, i64 40
  invoke void @_ZN5faiss4HNSWC1Ei(ptr noundef nonnull align 8 dereferenceable(5142) %18, i32 noundef %4)
          to label %_ZN5faiss9IndexHNSWC2EPNS_5IndexEi.exit unwind label %19

common.resume:                                    ; preds = %25, %19
  %common.resume.op = phi { ptr, i32 } [ %20, %19 ], [ %26, %25 ]
  resume { ptr, i32 } %common.resume.op

19:                                               ; preds = %7
  %20 = landingpad { ptr, i32 }
          cleanup
  tail call void @_ZN5faiss5IndexD2Ev(ptr noundef nonnull align 8 dereferenceable(5202) %0) #13
  br label %common.resume

_ZN5faiss9IndexHNSWC2EPNS_5IndexEi.exit:          ; preds = %7
  %21 = getelementptr inbounds nuw i8, ptr %0, i64 5184
  %22 = getelementptr inbounds nuw i8, ptr %0, i64 5192
  store ptr %6, ptr %22, align 8, !tbaa !4
  %23 = getelementptr inbounds nuw i8, ptr %0, i64 5200
  store i8 1, ptr %23, align 8, !tbaa !70
  %24 = getelementptr inbounds nuw i8, ptr %0, i64 5201
  store i8 0, ptr %24, align 1, !tbaa !143
  store ptr getelementptr inbounds nuw inrange(-16, 184) (i8, ptr @_ZTVN5faiss15IndexHNSW2LevelE, i64 16), ptr %0, align 8, !tbaa !41
  store i8 1, ptr %21, align 8, !tbaa !124
  store i8 0, ptr %15, align 1, !tbaa !43
  ret void

25:                                               ; preds = %5
  %26 = landingpad { ptr, i32 }
          cleanup
  tail call void @_ZdlPvm(ptr noundef nonnull %6, i64 noundef 384) #29
  br label %common.resume
}